; ModuleID = 'source-C-CXX/54/1160.cpp'
source_filename = "source-C-CXX/54/1160.cpp"
target datalayout = "e-m:e-p270:32:32-p271:32:32-p272:64:64-i64:64-f80:128-n8:16:32:64-S128"
target triple = "x86_64-pc-linux-gnu"

%"class.std::ios_base::Init" = type { i8 }
%"class.std::basic_istream" = type { i32 (...)**, i64, %"class.std::basic_ios" }
%"class.std::basic_ios" = type { %"class.std::ios_base", %"class.std::basic_ostream"*, i8, i8, %"class.std::basic_streambuf"*, %"class.std::ctype"*, %"class.std::num_put"*, %"class.std::num_get"* }
%"class.std::ios_base" = type { i32 (...)**, i64, i64, i32, i32, i32, %"struct.std::ios_base::_Callback_list"*, %"struct.std::ios_base::_Words", [8 x %"struct.std::ios_base::_Words"], i32, %"struct.std::ios_base::_Words"*, %"class.std::locale" }
%"struct.std::ios_base::_Callback_list" = type { %"struct.std::ios_base::_Callback_list"*, void (i32, %"class.std::ios_base"*, i32)*, i32, i32 }
%"struct.std::ios_base::_Words" = type { i8*, i64 }
%"class.std::locale" = type { %"class.std::locale::_Impl"* }
%"class.std::locale::_Impl" = type { i32, %"class.std::locale::facet"**, i64, %"class.std::locale::facet"**, i8** }
%"class.std::locale::facet" = type <{ i32 (...)**, i32, [4 x i8] }>
%"class.std::basic_ostream" = type { i32 (...)**, %"class.std::basic_ios" }
%"class.std::basic_streambuf" = type { i32 (...)**, i8*, i8*, i8*, i8*, i8*, i8*, %"class.std::locale" }
%"class.std::ctype" = type <{ %"class.std::locale::facet.base", [4 x i8], %struct.__locale_struct*, i8, [7 x i8], i32*, i32*, i16*, i8, [256 x i8], [256 x i8], i8, [6 x i8] }>
%"class.std::locale::facet.base" = type <{ i32 (...)**, i32 }>
%struct.__locale_struct = type { [13 x %struct.__locale_data*], i16*, i32*, i32*, [13 x i8*] }
%struct.__locale_data = type opaque
%"class.std::num_put" = type { %"class.std::locale::facet.base", [4 x i8] }
%"class.std::num_get" = type { %"class.std::locale::facet.base", [4 x i8] }
%struct._IO_FILE = type { i32, i8*, i8*, i8*, i8*, i8*, i8*, i8*, i8*, i8*, i8*, i8*, %struct._IO_marker*, %struct._IO_FILE*, i32, i32, i64, i16, i8, [1 x i8], i8*, i64, %struct._IO_codecvt*, %struct._IO_wide_data*, %struct._IO_FILE*, i8*, i64, i32, [20 x i8] }
%struct._IO_marker = type opaque
%struct._IO_codecvt = type opaque
%struct._IO_wide_data = type opaque

@_ZStL8__ioinit = internal global %"class.std::ios_base::Init" zeroinitializer, align 1
@__dso_handle = external hidden global i8
@_ZSt3cin = external global %"class.std::basic_istream", align 8
@_ZSt4cout = external global %"class.std::basic_ostream", align 8
@stdin = external local_unnamed_addr global %struct._IO_FILE*, align 8
@llvm.global_ctors = appending global [1 x { i32, void ()*, i8* }] [{ i32, void ()*, i8* } { i32 65535, void ()* @_GLOBAL__sub_I_1160.cpp, i8* null }]

declare void @_ZNSt8ios_base4InitC1Ev(%"class.std::ios_base::Init"* nonnull align 1 dereferenceable(1)) unnamed_addr #0

; Function Attrs: nounwind
declare void @_ZNSt8ios_base4InitD1Ev(%"class.std::ios_base::Init"* nonnull align 1 dereferenceable(1)) unnamed_addr #1

; Function Attrs: nofree nounwind
declare i32 @__cxa_atexit(void (i8*)*, i8*, i8*) local_unnamed_addr #2

; Function Attrs: mustprogress norecurse sspstrong uwtable
define dso_local i32 @main() local_unnamed_addr #3 {
  %1 = alloca i8, align 1
  %2 = alloca [35 x i8], align 16
  %3 = alloca i32, align 4
  %4 = alloca i32, align 4
  %5 = alloca [35 x i32], align 16
  %6 = getelementptr inbounds [35 x i8], [35 x i8]* %2, i64 0, i64 0
  call void @llvm.lifetime.start.p0i8(i64 35, i8* nonnull %6) #7
  %7 = bitcast i32* %3 to i8*
  call void @llvm.lifetime.start.p0i8(i64 4, i8* nonnull %7) #7
  store i32 0, i32* %3, align 4, !tbaa !5
  %8 = bitcast i32* %4 to i8*
  call void @llvm.lifetime.start.p0i8(i64 4, i8* nonnull %8) #7
  store i32 0, i32* %4, align 4, !tbaa !5
  %9 = call nonnull align 8 dereferenceable(16) %"class.std::basic_istream"* @_ZNSirsERi(%"class.std::basic_istream"* nonnull align 8 dereferenceable(16) @_ZSt3cin, i32* nonnull align 4 dereferenceable(4) %3)
  br label %10

10:                                               ; preds = %0, %20
  %11 = phi i64 [ 0, %0 ], [ %21, %20 ]
  %12 = load %struct._IO_FILE*, %struct._IO_FILE** @stdin, align 8, !tbaa !9
  %13 = call i32 @getc(%struct._IO_FILE* %12)
  %14 = trunc i32 %13 to i8
  %15 = getelementptr inbounds [35 x i8], [35 x i8]* %2, i64 0, i64 %11
  store i8 %14, i8* %15, align 1, !tbaa !11
  %16 = icmp ne i64 %11, 0
  %17 = and i32 %13, 255
  %18 = icmp eq i32 %17, 32
  %19 = and i1 %16, %18
  br i1 %19, label %23, label %20

20:                                               ; preds = %10
  %21 = add nuw nsw i64 %11, 1
  %22 = icmp eq i64 %21, 35
  br i1 %22, label %26, label %10, !llvm.loop !12

23:                                               ; preds = %10
  %24 = trunc i64 %11 to i32
  %25 = icmp ugt i32 %24, 1
  br i1 %25, label %26, label %50

26:                                               ; preds = %20, %23
  %27 = phi i64 [ %11, %23 ], [ 35, %20 ]
  %28 = load i32, i32* %3, align 4
  %29 = sext i32 %28 to i64
  %30 = and i64 %27, 4294967295
  br label %31

31:                                               ; preds = %26, %43
  %32 = phi i64 [ 1, %26 ], [ %48, %43 ]
  %33 = phi i64 [ 0, %26 ], [ %47, %43 ]
  %34 = getelementptr inbounds [35 x i8], [35 x i8]* %2, i64 0, i64 %32
  %35 = load i8, i8* %34, align 1, !tbaa !11
  %36 = add i8 %35, -48
  store i8 %36, i8* %34, align 1, !tbaa !11
  %37 = icmp sgt i8 %36, 16
  br i1 %37, label %38, label %43

38:                                               ; preds = %31
  %39 = add i8 %35, -55
  store i8 %39, i8* %34, align 1, !tbaa !11
  %40 = icmp sgt i8 %39, 40
  br i1 %40, label %41, label %43

41:                                               ; preds = %38
  %42 = add i8 %35, -87
  store i8 %42, i8* %34, align 1, !tbaa !11
  br label %43

43:                                               ; preds = %38, %41, %31
  %44 = phi i8 [ %39, %38 ], [ %42, %41 ], [ %36, %31 ]
  %45 = mul nsw i64 %33, %29
  %46 = sext i8 %44 to i64
  %47 = add nsw i64 %45, %46
  %48 = add nuw nsw i64 %32, 1
  %49 = icmp eq i64 %48, %30
  br i1 %49, label %50, label %31, !llvm.loop !14

50:                                               ; preds = %43, %23
  %51 = phi i64 [ 0, %23 ], [ %47, %43 ]
  %52 = call nonnull align 8 dereferenceable(16) %"class.std::basic_istream"* @_ZNSirsERi(%"class.std::basic_istream"* nonnull align 8 dereferenceable(16) @_ZSt3cin, i32* nonnull align 4 dereferenceable(4) %4)
  %53 = bitcast [35 x i32]* %5 to i8*
  call void @llvm.lifetime.start.p0i8(i64 140, i8* nonnull %53) #7
  %54 = load i32, i32* %4, align 4, !tbaa !5
  %55 = sext i32 %54 to i64
  br label %56

56:                                               ; preds = %56, %50
  %57 = phi i64 [ %59, %56 ], [ 0, %50 ]
  %58 = phi i64 [ %63, %56 ], [ %51, %50 ]
  %59 = add nuw nsw i64 %57, 1
  %60 = srem i64 %58, %55
  %61 = trunc i64 %60 to i32
  %62 = getelementptr inbounds [35 x i32], [35 x i32]* %5, i64 0, i64 %59
  store i32 %61, i32* %62, align 4, !tbaa !5
  %63 = sdiv i64 %58, %55
  %64 = icmp eq i64 %63, 0
  br i1 %64, label %65, label %56, !llvm.loop !15

65:                                               ; preds = %56
  %66 = and i64 %59, 4294967295
  br label %67

67:                                               ; preds = %65, %79
  %68 = phi i64 [ %66, %65 ], [ %82, %79 ]
  %69 = getelementptr inbounds [35 x i32], [35 x i32]* %5, i64 0, i64 %68
  %70 = load i32, i32* %69, align 4, !tbaa !5
  %71 = icmp sgt i32 %70, 9
  br i1 %71, label %72, label %77

72:                                               ; preds = %67
  %73 = add nsw i32 %70, -10
  store i32 %73, i32* %69, align 4, !tbaa !5
  %74 = trunc i32 %70 to i8
  %75 = add i8 %74, 55
  call void @llvm.lifetime.start.p0i8(i64 1, i8* nonnull %1)
  store i8 %75, i8* %1, align 1, !tbaa !11
  %76 = call nonnull align 8 dereferenceable(8) %"class.std::basic_ostream"* @_ZSt16__ostream_insertIcSt11char_traitsIcEERSt13basic_ostreamIT_T0_ES6_PKS3_l(%"class.std::basic_ostream"* nonnull align 8 dereferenceable(8) @_ZSt4cout, i8* nonnull %1, i64 1)
  call void @llvm.lifetime.end.p0i8(i64 1, i8* nonnull %1)
  br label %79

77:                                               ; preds = %67
  %78 = call nonnull align 8 dereferenceable(8) %"class.std::basic_ostream"* @_ZNSolsEi(%"class.std::basic_ostream"* nonnull align 8 dereferenceable(8) @_ZSt4cout, i32 %70)
  br label %79

79:                                               ; preds = %72, %77
  %80 = trunc i64 %68 to i32
  %81 = icmp sgt i32 %80, 1
  %82 = add nsw i64 %68, -1
  br i1 %81, label %67, label %83, !llvm.loop !16

83:                                               ; preds = %79
  call void @llvm.lifetime.end.p0i8(i64 140, i8* nonnull %53) #7
  call void @llvm.lifetime.end.p0i8(i64 4, i8* nonnull %8) #7
  call void @llvm.lifetime.end.p0i8(i64 4, i8* nonnull %7) #7
  call void @llvm.lifetime.end.p0i8(i64 35, i8* nonnull %6) #7
  ret i32 0
}

; Function Attrs: argmemonly mustprogress nofree nosync nounwind willreturn
declare void @llvm.lifetime.start.p0i8(i64 immarg, i8* nocapture) #4

declare nonnull align 8 dereferenceable(16) %"class.std::basic_istream"* @_ZNSirsERi(%"class.std::basic_istream"* nonnull align 8 dereferenceable(16), i32* nonnull align 4 dereferenceable(4)) local_unnamed_addr #0

declare nonnull align 8 dereferenceable(8) %"class.std::basic_ostream"* @_ZNSolsEi(%"class.std::basic_ostream"* nonnull align 8 dereferenceable(8), i32) local_unnamed_addr #0

; Function Attrs: argmemonly mustprogress nofree nosync nounwind willreturn
declare void @llvm.lifetime.end.p0i8(i64 immarg, i8* nocapture) #4

; Function Attrs: nofree nounwind
declare noundef i32 @getc(%struct._IO_FILE* nocapture noundef) local_unnamed_addr #5

declare nonnull align 8 dereferenceable(8) %"class.std::basic_ostream"* @_ZSt16__ostream_insertIcSt11char_traitsIcEERSt13basic_ostreamIT_T0_ES6_PKS3_l(%"class.std::basic_ostream"* nonnull align 8 dereferenceable(8), i8*, i64) local_unnamed_addr #0

; Function Attrs: sspstrong uwtable
define internal void @_GLOBAL__sub_I_1160.cpp() #6 section ".text.startup" {
  tail call void @_ZNSt8ios_base4InitC1Ev(%"class.std::ios_base::Init"* nonnull align 1 dereferenceable(1) @_ZStL8__ioinit)
  %1 = tail call i32 @__cxa_atexit(void (i8*)* bitcast (void (%"class.std::ios_base::Init"*)* @_ZNSt8ios_base4InitD1Ev to void (i8*)*), i8* getelementptr inbounds (%"class.std::ios_base::Init", %"class.std::ios_base::Init"* @_ZStL8__ioinit, i64 0, i32 0), i8* nonnull @__dso_handle) #7
  ret void
}


!llvm.module.flags = !{!0, !1, !2, !3}
!llvm.ident = !{!4}

!0 = !{i32 1, !"wchar_size", i32 4}
!1 = !{i32 7, !"PIC Level", i32 2}
!2 = !{i32 7, !"PIE Level", i32 2}
!3 = !{i32 7, !"uwtable", i32 1}
!4 = !{!"clang version 13.0.0"}
!5 = !{!6, !6, i64 0}
!6 = !{!"int", !7, i64 0}
!7 = !{!"omnipotent char", !8, i64 0}
!8 = !{!"Simple C++ TBAA"}
!9 = !{!10, !10, i64 0}
!10 = !{!"any pointer", !7, i64 0}
!11 = !{!7, !7, i64 0}
!12 = distinct !{!12, !13}
!13 = !{!"llvm.loop.mustprogress"}
!14 = distinct !{!14, !13}
!15 = distinct !{!15, !13}
!16 = distinct !{!16, !13}
